target datalayout = "e-m:e-p270:32:32-p271:32:32-p272:64:64-i64:64-i128:128-f80:128-n8:16:32:64-S128"
target triple = "x86_64-pc-linux-gnu"

%struct.H5O_fill_t = type { %struct.H5O_shared_t, i32, ptr, i64, ptr, i32, i32, i8 }
%struct.H5O_shared_t = type { i32, ptr, i32, %union.anon }
%union.anon = type { %struct.H5O_mesg_loc_t }
%struct.H5O_mesg_loc_t = type { i32, i64 }

@H5P_init_g = external global i8, align 1
@H5_libterm_g = external global i8, align 1
@.str.1 = private unnamed_addr constant [101 x i8] c"generated/home/dtcxzyw/WorkSpace/Projects/compilers/llvm-opt-benchmark/bench/hdf5/hdf5/src/H5Pdcpl.c\00", align 1
@H5E_PLIST_g = external global i64, align 8
@H5E_CANTALLOC_g = external global i64, align 8
@H5E_CANTDECODE_g = external global i64, align 8
@__func__.H5P__dcrt_fill_value_dec = private unnamed_addr constant [25 x i8] c"H5P__dcrt_fill_value_dec\00", align 1
@.str.101 = private unnamed_addr constant [47 x i8] c"memory allocation failed for fill value buffer\00", align 1
@.str.102 = private unnamed_addr constant [33 x i8] c"can't decode fill value datatype\00", align 1

; Function Attrs: nounwind uwtable
define internal i32 @H5P__dcrt_fill_value_dec(ptr noundef %0, ptr noundef %1) #0 {
  %3 = alloca i32, align 4
  %4 = alloca ptr, align 8
  %5 = alloca ptr, align 8
  %6 = alloca ptr, align 8
  %7 = alloca ptr, align 8
  %8 = alloca i32, align 4
  %9 = alloca i8, align 1
  %10 = alloca i64, align 8
  %11 = alloca i64, align 8
  %12 = alloca i64, align 8
  %13 = alloca i32, align 4
  %14 = alloca i64, align 8
  %15 = alloca i32, align 4
  store ptr %0, ptr %4, align 8, !tbaa !16
  store ptr %1, ptr %5, align 8, !tbaa !16
  call void @llvm.lifetime.start.p0(i64 8, ptr %6) #11
  %16 = load ptr, ptr %5, align 8, !tbaa !16
  store ptr %16, ptr %6, align 8, !tbaa !17
  call void @llvm.lifetime.start.p0(i64 8, ptr %7) #11
  %17 = load ptr, ptr %4, align 8, !tbaa !16
  store ptr %17, ptr %7, align 8, !tbaa !98
  call void @llvm.lifetime.start.p0(i64 4, ptr %8) #11
  store i32 0, ptr %8, align 4, !tbaa !8
  call void @llvm.lifetime.start.p0(i64 1, ptr %9) #11
  store i8 0, ptr %9, align 1, !tbaa !10
  %18 = load i8, ptr @H5P_init_g, align 1, !tbaa !10, !range !12, !noundef !13
  %19 = trunc i8 %18 to i1
  br i1 %19, label %24, label %20

20:                                               ; preds = %2
  %21 = load i8, ptr @H5_libterm_g, align 1, !tbaa !10, !range !12, !noundef !13
  %22 = trunc i8 %21 to i1
  %23 = xor i1 %22, true
  br label %24

24:                                               ; preds = %20, %2
  %25 = phi i1 [ true, %2 ], [ %23, %20 ]
  %26 = xor i1 %25, true
  %27 = xor i1 %26, true
  %28 = zext i1 %27 to i32
  %29 = sext i32 %28 to i64
  %30 = call i64 @llvm.expect.i64(i64 %29, i64 1)
  %31 = icmp ne i64 %30, 0
  br i1 %31, label %32, label %198

32:                                               ; preds = %24
  %33 = load ptr, ptr %6, align 8, !tbaa !17
  call void @llvm.memcpy.p0.p0.i64(ptr align 8 %33, ptr align 8 @H5D_def_fill_g, i64 88, i1 false), !tbaa.struct !110
  %34 = load ptr, ptr %7, align 8, !tbaa !98
  %35 = load ptr, ptr %34, align 8, !tbaa !42
  %36 = getelementptr inbounds nuw i8, ptr %35, i32 1
  store ptr %36, ptr %34, align 8, !tbaa !42
  %37 = load i8, ptr %35, align 1, !tbaa !38
  %38 = zext i8 %37 to i32
  %39 = load ptr, ptr %6, align 8, !tbaa !17
  %40 = getelementptr inbounds nuw %struct.H5O_fill_t, ptr %39, i32 0, i32 5
  store i32 %38, ptr %40, align 8, !tbaa !26
  %41 = load ptr, ptr %7, align 8, !tbaa !98
  %42 = load ptr, ptr %41, align 8, !tbaa !42
  %43 = getelementptr inbounds nuw i8, ptr %42, i32 1
  store ptr %43, ptr %41, align 8, !tbaa !42
  %44 = load i8, ptr %42, align 1, !tbaa !38
  %45 = zext i8 %44 to i32
  %46 = load ptr, ptr %6, align 8, !tbaa !17
  %47 = getelementptr inbounds nuw %struct.H5O_fill_t, ptr %46, i32 0, i32 6
  store i32 %45, ptr %47, align 4, !tbaa !27
  br label %48

48:                                               ; preds = %32
  call void @llvm.lifetime.start.p0(i64 8, ptr %10) #11
  %49 = load ptr, ptr %6, align 8, !tbaa !17
  %50 = getelementptr inbounds nuw %struct.H5O_fill_t, ptr %49, i32 0, i32 3
  store i64 0, ptr %50, align 8, !tbaa !19
  %51 = load ptr, ptr %7, align 8, !tbaa !98
  %52 = load ptr, ptr %51, align 8, !tbaa !42
  %53 = getelementptr inbounds i8, ptr %52, i64 8
  store ptr %53, ptr %51, align 8, !tbaa !42
  store i64 0, ptr %10, align 8, !tbaa !14
  br label %54

54:                                               ; preds = %70, %48
  %55 = load i64, ptr %10, align 8, !tbaa !14
  %56 = icmp ult i64 %55, 8
  br i1 %56, label %57, label %73

57:                                               ; preds = %54
  %58 = load ptr, ptr %6, align 8, !tbaa !17
  %59 = getelementptr inbounds nuw %struct.H5O_fill_t, ptr %58, i32 0, i32 3
  %60 = load i64, ptr %59, align 8, !tbaa !19
  %61 = shl i64 %60, 8
  %62 = load ptr, ptr %7, align 8, !tbaa !98
  %63 = load ptr, ptr %62, align 8, !tbaa !42
  %64 = getelementptr inbounds i8, ptr %63, i32 -1
  store ptr %64, ptr %62, align 8, !tbaa !42
  %65 = load i8, ptr %64, align 1, !tbaa !38
  %66 = zext i8 %65 to i64
  %67 = or i64 %61, %66
  %68 = load ptr, ptr %6, align 8, !tbaa !17
  %69 = getelementptr inbounds nuw %struct.H5O_fill_t, ptr %68, i32 0, i32 3
  store i64 %67, ptr %69, align 8, !tbaa !19
  br label %70

70:                                               ; preds = %57
  %71 = load i64, ptr %10, align 8, !tbaa !14
  %72 = add i64 %71, 1
  store i64 %72, ptr %10, align 8, !tbaa !14
  br label %54, !llvm.loop !115

73:                                               ; preds = %54
  %74 = load ptr, ptr %7, align 8, !tbaa !98
  %75 = load ptr, ptr %74, align 8, !tbaa !42
  %76 = getelementptr inbounds i8, ptr %75, i64 8
  store ptr %76, ptr %74, align 8, !tbaa !42
  call void @llvm.lifetime.end.p0(i64 8, ptr %10) #11
  br label %77

77:                                               ; preds = %73
  br label %78

78:                                               ; preds = %77
  %79 = load ptr, ptr %6, align 8, !tbaa !17
  %80 = getelementptr inbounds nuw %struct.H5O_fill_t, ptr %79, i32 0, i32 3
  %81 = load i64, ptr %80, align 8, !tbaa !19
  %82 = icmp sgt i64 %81, 0
  br i1 %82, label %83, label %196

83:                                               ; preds = %78
  call void @llvm.lifetime.start.p0(i64 8, ptr %11) #11
  store i64 0, ptr %11, align 8, !tbaa !14
  call void @llvm.lifetime.start.p0(i64 8, ptr %12) #11
  call void @llvm.lifetime.start.p0(i64 4, ptr %13) #11
  %84 = load ptr, ptr %6, align 8, !tbaa !17
  %85 = getelementptr inbounds nuw %struct.H5O_fill_t, ptr %84, i32 0, i32 3
  %86 = load i64, ptr %85, align 8, !tbaa !19
  %87 = call noalias ptr @malloc(i64 noundef %86) #13
  %88 = load ptr, ptr %6, align 8, !tbaa !17
  %89 = getelementptr inbounds nuw %struct.H5O_fill_t, ptr %88, i32 0, i32 4
  store ptr %87, ptr %89, align 8, !tbaa !25
  %90 = icmp eq ptr null, %87
  br i1 %90, label %91, label %110

91:                                               ; preds = %83
  br label %92

92:                                               ; preds = %91
  br label %93

93:                                               ; preds = %92
  br label %94

94:                                               ; preds = %93
  %95 = load i64, ptr @H5E_PLIST_g, align 8, !tbaa !14
  %96 = load i64, ptr @H5E_CANTALLOC_g, align 8, !tbaa !14
  %97 = call i32 (ptr, ptr, i32, i64, i64, ptr, ...) @H5E_printf_stack(ptr noundef @.str.1, ptr noundef @__func__.H5P__dcrt_fill_value_dec, i32 noundef 1157, i64 noundef %95, i64 noundef %96, ptr noundef @.str.101)
  br label %98

98:                                               ; preds = %94
  br label %99

99:                                               ; preds = %98
  store i8 1, ptr %9, align 1, !tbaa !10
  %100 = load i8, ptr %9, align 1, !tbaa !10, !range !12, !noundef !13
  %101 = trunc i8 %100 to i1
  %102 = zext i1 %101 to i8
  store i8 %102, ptr %9, align 1, !tbaa !10
  br label %103

103:                                              ; preds = %99
  br label %104

104:                                              ; preds = %103
  br label %105

105:                                              ; preds = %104
  store i32 -1, ptr %8, align 4, !tbaa !8
  store i32 15, ptr %15, align 4
  br label %193

106:                                              ; No predecessors!
  br label %107

107:                                              ; preds = %106
  br label %108

108:                                              ; preds = %107
  br label %109

109:                                              ; preds = %108
  br label %110

110:                                              ; preds = %109, %83
  %111 = load ptr, ptr %6, align 8, !tbaa !17
  %112 = getelementptr inbounds nuw %struct.H5O_fill_t, ptr %111, i32 0, i32 4
  %113 = load ptr, ptr %112, align 8, !tbaa !25
  %114 = load ptr, ptr %7, align 8, !tbaa !98
  %115 = load ptr, ptr %114, align 8, !tbaa !42
  %116 = load ptr, ptr %6, align 8, !tbaa !17
  %117 = getelementptr inbounds nuw %struct.H5O_fill_t, ptr %116, i32 0, i32 3
  %118 = load i64, ptr %117, align 8, !tbaa !19
  call void @llvm.memcpy.p0.p0.i64(ptr align 1 %113, ptr align 1 %115, i64 %118, i1 false)
  %119 = load ptr, ptr %6, align 8, !tbaa !17
  %120 = getelementptr inbounds nuw %struct.H5O_fill_t, ptr %119, i32 0, i32 3
  %121 = load i64, ptr %120, align 8, !tbaa !19
  %122 = load ptr, ptr %7, align 8, !tbaa !98
  %123 = load ptr, ptr %122, align 8, !tbaa !42
  %124 = getelementptr inbounds i8, ptr %123, i64 %121
  store ptr %124, ptr %122, align 8, !tbaa !42
  %125 = load ptr, ptr %7, align 8, !tbaa !98
  %126 = load ptr, ptr %125, align 8, !tbaa !42
  %127 = getelementptr inbounds nuw i8, ptr %126, i32 1
  store ptr %127, ptr %125, align 8, !tbaa !42
  %128 = load i8, ptr %126, align 1, !tbaa !38
  %129 = zext i8 %128 to i32
  store i32 %129, ptr %13, align 4, !tbaa !8
  br label %130

130:                                              ; preds = %110
  call void @llvm.lifetime.start.p0(i64 8, ptr %14) #11
  store i64 0, ptr %12, align 8, !tbaa !14
  %131 = load i32, ptr %13, align 4, !tbaa !8
  %132 = load ptr, ptr %7, align 8, !tbaa !98
  %133 = load ptr, ptr %132, align 8, !tbaa !42
  %134 = zext i32 %131 to i64
  %135 = getelementptr inbounds nuw i8, ptr %133, i64 %134
  store ptr %135, ptr %132, align 8, !tbaa !42
  store i64 0, ptr %14, align 8, !tbaa !14
  br label %136

136:                                              ; preds = %150, %130
  %137 = load i64, ptr %14, align 8, !tbaa !14
  %138 = load i32, ptr %13, align 4, !tbaa !8
  %139 = zext i32 %138 to i64
  %140 = icmp ult i64 %137, %139
  br i1 %140, label %141, label %153

141:                                              ; preds = %136
  %142 = load i64, ptr %12, align 8, !tbaa !14
  %143 = shl i64 %142, 8
  %144 = load ptr, ptr %7, align 8, !tbaa !98
  %145 = load ptr, ptr %144, align 8, !tbaa !42
  %146 = getelementptr inbounds i8, ptr %145, i32 -1
  store ptr %146, ptr %144, align 8, !tbaa !42
  %147 = load i8, ptr %146, align 1, !tbaa !38
  %148 = zext i8 %147 to i64
  %149 = or i64 %143, %148
  store i64 %149, ptr %12, align 8, !tbaa !14
  br label %150

150:                                              ; preds = %141
  %151 = load i64, ptr %14, align 8, !tbaa !14
  %152 = add i64 %151, 1
  store i64 %152, ptr %14, align 8, !tbaa !14
  br label %136, !llvm.loop !116

153:                                              ; preds = %136
  %154 = load i32, ptr %13, align 4, !tbaa !8
  %155 = load ptr, ptr %7, align 8, !tbaa !98
  %156 = load ptr, ptr %155, align 8, !tbaa !42
  %157 = zext i32 %154 to i64
  %158 = getelementptr inbounds nuw i8, ptr %156, i64 %157
  store ptr %158, ptr %155, align 8, !tbaa !42
  call void @llvm.lifetime.end.p0(i64 8, ptr %14) #11
  br label %159

159:                                              ; preds = %153
  br label %160

160:                                              ; preds = %159
  %161 = load i64, ptr %12, align 8, !tbaa !14
  store i64 %161, ptr %11, align 8, !tbaa !14
  %162 = load i64, ptr %11, align 8, !tbaa !14
  %163 = load ptr, ptr %7, align 8, !tbaa !98
  %164 = load ptr, ptr %163, align 8, !tbaa !42
  %165 = call ptr @H5T_decode(i64 noundef %162, ptr noundef %164)
  %166 = load ptr, ptr %6, align 8, !tbaa !17
  %167 = getelementptr inbounds nuw %struct.H5O_fill_t, ptr %166, i32 0, i32 2
  store ptr %165, ptr %167, align 8, !tbaa !24
  %168 = icmp eq ptr null, %165
  br i1 %168, label %169, label %188

169:                                              ; preds = %160
  br label %170

170:                                              ; preds = %169
  br label %171

171:                                              ; preds = %170
  br label %172

172:                                              ; preds = %171
  %173 = load i64, ptr @H5E_PLIST_g, align 8, !tbaa !14
  %174 = load i64, ptr @H5E_CANTDECODE_g, align 8, !tbaa !14
  %175 = call i32 (ptr, ptr, i32, i64, i64, ptr, ...) @H5E_printf_stack(ptr noundef @.str.1, ptr noundef @__func__.H5P__dcrt_fill_value_dec, i32 noundef 1170, i64 noundef %173, i64 noundef %174, ptr noundef @.str.102)
  br label %176

176:                                              ; preds = %172
  br label %177

177:                                              ; preds = %176
  store i8 1, ptr %9, align 1, !tbaa !10
  %178 = load i8, ptr %9, align 1, !tbaa !10, !range !12, !noundef !13
  %179 = trunc i8 %178 to i1
  %180 = zext i1 %179 to i8
  store i8 %180, ptr %9, align 1, !tbaa !10
  br label %181

181:                                              ; preds = %177
  br label %182

182:                                              ; preds = %181
  br label %183

183:                                              ; preds = %182
  store i32 -1, ptr %8, align 4, !tbaa !8
  store i32 15, ptr %15, align 4
  br label %193

184:                                              ; No predecessors!
  br label %185

185:                                              ; preds = %184
  br label %186

186:                                              ; preds = %185
  br label %187

187:                                              ; preds = %186
  br label %188

188:                                              ; preds = %187, %160
  %189 = load i64, ptr %11, align 8, !tbaa !14
  %190 = load ptr, ptr %7, align 8, !tbaa !98
  %191 = load ptr, ptr %190, align 8, !tbaa !42
  %192 = getelementptr inbounds nuw i8, ptr %191, i64 %189
  store ptr %192, ptr %190, align 8, !tbaa !42
  store i32 0, ptr %15, align 4
  br label %193

193:                                              ; preds = %183, %105, %188
  call void @llvm.lifetime.end.p0(i64 4, ptr %13) #11
  call void @llvm.lifetime.end.p0(i64 8, ptr %12) #11
  call void @llvm.lifetime.end.p0(i64 8, ptr %11) #11
  %194 = load i32, ptr %15, align 4
  switch i32 %194, label %200 [
    i32 0, label %195
    i32 15, label %197
  ]

195:                                              ; preds = %193
  br label %196

196:                                              ; preds = %195, %78
  br label %197

197:                                              ; preds = %196, %193
  br label %198

198:                                              ; preds = %197, %24
  %199 = load i32, ptr %8, align 4, !tbaa !8
  store i32 %199, ptr %3, align 4
  store i32 1, ptr %15, align 4
  br label %200

200:                                              ; preds = %198, %193
  call void @llvm.lifetime.end.p0(i64 1, ptr %9) #11
  call void @llvm.lifetime.end.p0(i64 4, ptr %8) #11
  call void @llvm.lifetime.end.p0(i64 8, ptr %7) #11
  call void @llvm.lifetime.end.p0(i64 8, ptr %6) #11
  %201 = load i32, ptr %3, align 4
  ret i32 %201
}