; Function Attrs: nounwind uwtable
define internal range(i32 -1, 1) i32 @H5P__dcrt_fill_value_dec(ptr noundef captures(none) %0, ptr noundef writeonly captures(none) %1) #0 {
  %3 = load i8, ptr @H5P_init_g, align 1, !tbaa !3, !range !7, !noundef !8
  %4 = trunc nuw i8 %3 to i1
  %5 = load i8, ptr @H5_libterm_g, align 1, !range !7
  %6 = trunc nuw i8 %5 to i1
  %7 = xor i1 %6, true
  %8 = select i1 %4, i1 true, i1 %7
  br i1 %8, label %9, label %66, !prof !9

9:                                                ; preds = %2
  tail call void @llvm.memcpy.p0.p0.i64(ptr noundef nonnull align 8 dereferenceable(88) %1, ptr noundef nonnull align 8 dereferenceable(88) @H5D_def_fill_g, i64 88, i1 false), !tbaa.struct !90
  %10 = load ptr, ptr %0, align 8, !tbaa !51
  %11 = getelementptr inbounds nuw i8, ptr %10, i64 1
  store ptr %11, ptr %0, align 8, !tbaa !51
  %12 = load i8, ptr %10, align 1, !tbaa !32
  %13 = zext i8 %12 to i32
  %14 = getelementptr inbounds nuw i8, ptr %1, i64 72
  store i32 %13, ptr %14, align 8, !tbaa !21
  %15 = getelementptr inbounds nuw i8, ptr %10, i64 2
  store ptr %15, ptr %0, align 8, !tbaa !51
  %16 = load i8, ptr %11, align 1, !tbaa !32
  %17 = zext i8 %16 to i32
  %18 = getelementptr inbounds nuw i8, ptr %1, i64 76
  store i32 %17, ptr %18, align 4, !tbaa !22
  %19 = getelementptr inbounds nuw i8, ptr %1, i64 56
  store i64 0, ptr %19, align 8, !tbaa !12
  %20 = getelementptr inbounds nuw i8, ptr %10, i64 10
  br label %21

21:                                               ; preds = %9, %21
  %.04652 = phi i64 [ 0, %9 ], [ %29, %21 ]
  %22 = phi i64 [ 0, %9 ], [ %28, %21 ]
  %23 = phi ptr [ %20, %9 ], [ %25, %21 ]
  %24 = shl i64 %22, 8
  %25 = getelementptr inbounds i8, ptr %23, i64 -1
  store ptr %25, ptr %0, align 8, !tbaa !51
  %26 = load i8, ptr %25, align 1, !tbaa !32
  %27 = zext i8 %26 to i64
  %28 = or disjoint i64 %24, %27
  store i64 %28, ptr %19, align 8, !tbaa !12
  %29 = add nuw nsw i64 %.04652, 1
  %exitcond.not = icmp eq i64 %29, 8
  br i1 %exitcond.not, label %30, label %21, !llvm.loop !96

30:                                               ; preds = %21
  %31 = getelementptr inbounds nuw i8, ptr %23, i64 7
  store ptr %31, ptr %0, align 8, !tbaa !51
  %32 = icmp sgt i64 %28, 0
  br i1 %32, label %33, label %66

33:                                               ; preds = %30
  %34 = tail call noalias ptr @malloc(i64 noundef %28) #14
  %35 = getelementptr inbounds nuw i8, ptr %1, i64 64
  store ptr %34, ptr %35, align 8, !tbaa !20
  %36 = icmp eq ptr %34, null
  br i1 %36, label %37, label %41

37:                                               ; preds = %33
  %38 = load i64, ptr @H5E_PLIST_g, align 8, !tbaa !10
  %39 = load i64, ptr @H5E_CANTALLOC_g, align 8, !tbaa !10
  %40 = tail call i32 (ptr, ptr, i32, i64, i64, ptr, ...) @H5E_printf_stack(ptr noundef nonnull @.str.1, ptr noundef nonnull @__func__.H5P__dcrt_fill_value_dec, i32 noundef 1157, i64 noundef %38, i64 noundef %39, ptr noundef nonnull @.str.101) #12
  br label %66

41:                                               ; preds = %33
  tail call void @llvm.memcpy.p0.p0.i64(ptr nonnull align 1 %34, ptr nonnull align 1 %31, i64 %28, i1 false)
  %42 = getelementptr inbounds nuw i8, ptr %31, i64 %28
  %43 = getelementptr inbounds nuw i8, ptr %42, i64 1
  store ptr %43, ptr %0, align 8, !tbaa !51
  %44 = load i8, ptr %42, align 1, !tbaa !32
  %45 = zext i8 %44 to i64
  %46 = getelementptr inbounds nuw i8, ptr %43, i64 %45
  %.not = icmp eq i8 %44, 0
  br i1 %.not, label %._crit_edge, label %.lr.ph

.lr.ph:                                           ; preds = %41, %.lr.ph
  %47 = phi ptr [ %49, %.lr.ph ], [ %46, %41 ]
  %.04354 = phi i64 [ %53, %.lr.ph ], [ 0, %41 ]
  %.04553 = phi i64 [ %52, %.lr.ph ], [ 0, %41 ]
  %48 = shl i64 %.04553, 8
  %49 = getelementptr inbounds i8, ptr %47, i64 -1
  store ptr %49, ptr %0, align 8, !tbaa !51
  %50 = load i8, ptr %49, align 1, !tbaa !32
  %51 = zext i8 %50 to i64
  %52 = or disjoint i64 %48, %51
  %53 = add nuw nsw i64 %.04354, 1
  %exitcond56.not = icmp eq i64 %53, %45
  br i1 %exitcond56.not, label %._crit_edge, label %.lr.ph, !llvm.loop !97

._crit_edge:                                      ; preds = %.lr.ph, %41
  %54 = phi ptr [ %46, %41 ], [ %49, %.lr.ph ]
  %.045.lcssa = phi i64 [ 0, %41 ], [ %52, %.lr.ph ]
  %55 = getelementptr inbounds nuw i8, ptr %54, i64 %45
  store ptr %55, ptr %0, align 8, !tbaa !51
  %56 = tail call ptr @H5T_decode(i64 noundef %.045.lcssa, ptr noundef %55) #12
  %57 = getelementptr inbounds nuw i8, ptr %1, i64 48
  store ptr %56, ptr %57, align 8, !tbaa !19
  %58 = icmp eq ptr %56, null
  br i1 %58, label %59, label %63

59:                                               ; preds = %._crit_edge
  %60 = load i64, ptr @H5E_PLIST_g, align 8, !tbaa !10
  %61 = load i64, ptr @H5E_CANTDECODE_g, align 8, !tbaa !10
  %62 = tail call i32 (ptr, ptr, i32, i64, i64, ptr, ...) @H5E_printf_stack(ptr noundef nonnull @.str.1, ptr noundef nonnull @__func__.H5P__dcrt_fill_value_dec, i32 noundef 1170, i64 noundef %60, i64 noundef %61, ptr noundef nonnull @.str.102) #12
  br label %66

63:                                               ; preds = %._crit_edge
  %64 = load ptr, ptr %0, align 8, !tbaa !51
  %65 = getelementptr inbounds nuw i8, ptr %64, i64 %.045.lcssa
  store ptr %65, ptr %0, align 8, !tbaa !51
  br label %66

66:                                               ; preds = %37, %59, %63, %2, %30
  %.044 = phi i32 [ 0, %30 ], [ 0, %2 ], [ -1, %37 ], [ -1, %59 ], [ 0, %63 ]
  ret i32 %.044
}